target datalayout = "e-m:e-p270:32:32-p271:32:32-p272:64:64-i64:64-i128:128-f80:128-n8:16:32:64-S128"
target triple = "x86_64-pc-linux-gnu"

%struct.H5D_layout_ops_t = type { ptr, ptr, ptr, ptr, ptr, ptr, ptr, ptr, ptr, ptr, ptr, ptr, ptr }
%struct.H5D_dset_io_info_t = type { ptr, ptr, %struct.H5D_layout_ops_t, %union.H5_flexible_const_ptr_t, %struct.H5D_io_ops_t, ptr, i64, ptr, ptr, %union.anon.8, ptr, %struct.H5D_type_info_t, i8 }
%union.H5_flexible_const_ptr_t = type { ptr }
%struct.H5D_io_ops_t = type { ptr, ptr, ptr, ptr }
%union.anon.8 = type { ptr }
%struct.H5D_type_info_t = type { ptr, ptr, ptr, ptr, ptr, i64, i64, i8, i8, ptr, i32, i64 }
%struct.H5D_chunk_map_t = type { i32, ptr, %struct.H5S_sel_iter_t, i32, i32, i32, ptr, ptr, ptr, i8, i64, ptr, [33 x i64] }
%struct.H5S_sel_iter_t = type { ptr, i32, [32 x i64], [32 x i64], i64, i64, i32, %union.anon.9 }
%union.anon.9 = type { %struct.H5S_hyper_iter_t }
%struct.H5S_hyper_iter_t = type { [32 x i64], [32 x i64], i32, i8, [32 x %struct.H5S_hyper_dim_t], [32 x i64], [32 x i64], [32 x i8], [32 x i64], ptr, [32 x ptr] }
%struct.H5S_hyper_dim_t = type { i64, i64, i64, i64 }
%struct.H5D_piece_info_t = type { i64, i64, i64, [33 x i64], ptr, i32, ptr, i32, i8, i64, i8, ptr }

@H5_H5D_piece_info_t_reg_free_list = global { i8, [3 x i8], i32, i32, [4 x i8], ptr, i64, ptr } { i8 0, [3 x i8] zeroinitializer, i32 0, i32 0, [4 x i8] zeroinitializer, ptr @.str, i64 344, ptr null }, align 8
@H5D_init_g = external global i8, align 1
@H5_libterm_g = external global i8, align 1
@.str.1 = private unnamed_addr constant [102 x i8] c"generated/home/dtcxzyw/WorkSpace/Projects/compilers/llvm-opt-benchmark/bench/hdf5/hdf5/src/H5Dchunk.c\00", align 1
@H5E_DATASET_g = external global i64, align 8
@H5E_CANTFREE_g = external global i64, align 8
@H5E_DATASPACE_g = external global i64, align 8
@H5E_CANTRELEASE_g = external global i64, align 8
@H5E_CANTNEXT_g = external global i64, align 8
@H5_H5D_chunk_map_t_reg_free_list = internal global { i8, [3 x i8], i32, i32, [4 x i8], ptr, i64, ptr } { i8 0, [3 x i8] zeroinitializer, i32 0, i32 0, [4 x i8] zeroinitializer, ptr @.str.105, i64 3504, ptr null }, align 8
@.str.120 = private unnamed_addr constant [46 x i8] c"can't release memory chunk dataspace template\00", align 1
@__func__.H5D__chunk_io_term = private unnamed_addr constant [19 x i8] c"H5D__chunk_io_term\00", align 1
@.str.156 = private unnamed_addr constant [29 x i8] c"can't free dataset skip list\00", align 1
@.str.157 = private unnamed_addr constant [22 x i8] c"can't free piece info\00", align 1

; Function Attrs: nounwind uwtable
define i32 @H5D__free_piece_info(ptr noundef %0, ptr noundef %1, ptr noundef %2) #0 {
  %4 = alloca ptr, align 8
  %5 = alloca ptr, align 8
  %6 = alloca ptr, align 8
  %7 = alloca ptr, align 8
  store ptr %0, ptr %4, align 8, !tbaa !154
  store ptr %1, ptr %5, align 8, !tbaa !154
  store ptr %2, ptr %6, align 8, !tbaa !154
  call void @llvm.lifetime.start.p0(i64 8, ptr %7) #10
  %8 = load ptr, ptr %4, align 8, !tbaa !154
  store ptr %8, ptr %7, align 8, !tbaa !129
  %9 = load i8, ptr @H5D_init_g, align 1, !tbaa !12, !range !14, !noundef !15
  %10 = trunc i8 %9 to i1
  br i1 %10, label %15, label %11

11:                                               ; preds = %3
  %12 = load i8, ptr @H5_libterm_g, align 1, !tbaa !12, !range !14, !noundef !15
  %13 = trunc i8 %12 to i1
  %14 = xor i1 %13, true
  br label %15

15:                                               ; preds = %11, %3
  %16 = phi i1 [ true, %3 ], [ %14, %11 ]
  %17 = xor i1 %16, true
  %18 = xor i1 %17, true
  %19 = zext i1 %18 to i32
  %20 = sext i32 %19 to i64
  %21 = call i64 @llvm.expect.i64(i64 %20, i64 1)
  %22 = icmp ne i64 %21, 0
  br i1 %22, label %23, label %56

23:                                               ; preds = %15
  %24 = load ptr, ptr %7, align 8, !tbaa !129
  %25 = getelementptr inbounds nuw %struct.H5D_piece_info_t, ptr %24, i32 0, i32 5
  %26 = load i32, ptr %25, align 8, !tbaa !248
  %27 = icmp ne i32 %26, 0
  br i1 %27, label %33, label %28

28:                                               ; preds = %23
  %29 = load ptr, ptr %7, align 8, !tbaa !129
  %30 = getelementptr inbounds nuw %struct.H5D_piece_info_t, ptr %29, i32 0, i32 4
  %31 = load ptr, ptr %30, align 8, !tbaa !162
  %32 = call i32 @H5S_close(ptr noundef %31)
  br label %38

33:                                               ; preds = %23
  %34 = load ptr, ptr %7, align 8, !tbaa !129
  %35 = getelementptr inbounds nuw %struct.H5D_piece_info_t, ptr %34, i32 0, i32 4
  %36 = load ptr, ptr %35, align 8, !tbaa !162
  %37 = call i32 @H5S_select_all(ptr noundef %36, i1 noundef zeroext true)
  br label %38

38:                                               ; preds = %33, %28
  %39 = load ptr, ptr %7, align 8, !tbaa !129
  %40 = getelementptr inbounds nuw %struct.H5D_piece_info_t, ptr %39, i32 0, i32 7
  %41 = load i32, ptr %40, align 8, !tbaa !249
  %42 = icmp ne i32 %41, 0
  br i1 %42, label %53, label %43

43:                                               ; preds = %38
  %44 = load ptr, ptr %7, align 8, !tbaa !129
  %45 = getelementptr inbounds nuw %struct.H5D_piece_info_t, ptr %44, i32 0, i32 6
  %46 = load ptr, ptr %45, align 8, !tbaa !134
  %47 = icmp ne ptr %46, null
  br i1 %47, label %48, label %53

48:                                               ; preds = %43
  %49 = load ptr, ptr %7, align 8, !tbaa !129
  %50 = getelementptr inbounds nuw %struct.H5D_piece_info_t, ptr %49, i32 0, i32 6
  %51 = load ptr, ptr %50, align 8, !tbaa !134
  %52 = call i32 @H5S_close(ptr noundef %51)
  br label %53

53:                                               ; preds = %48, %43, %38
  %54 = load ptr, ptr %7, align 8, !tbaa !129
  %55 = call ptr @H5FL_reg_free(ptr noundef @H5_H5D_piece_info_t_reg_free_list, ptr noundef %54)
  store ptr %55, ptr %7, align 8, !tbaa !129
  br label %56

56:                                               ; preds = %53, %15
  call void @llvm.lifetime.end.p0(i64 8, ptr %7) #10
  ret i32 0
}

; Function Attrs: nounwind uwtable
define internal i32 @H5D__chunk_io_term(ptr noundef %0, ptr noundef %1) #0 {
  %3 = alloca ptr, align 8
  %4 = alloca ptr, align 8
  %5 = alloca ptr, align 8
  %6 = alloca i32, align 4
  %7 = alloca i8, align 1
  store ptr %0, ptr %3, align 8, !tbaa !85
  store ptr %1, ptr %4, align 8, !tbaa !87
  call void @llvm.lifetime.start.p0(i64 8, ptr %5) #10
  call void @llvm.lifetime.start.p0(i64 4, ptr %6) #10
  store i32 0, ptr %6, align 4, !tbaa !10
  call void @llvm.lifetime.start.p0(i64 1, ptr %7) #10
  store i8 0, ptr %7, align 1, !tbaa !12
  %8 = load i8, ptr @H5D_init_g, align 1, !tbaa !12, !range !14, !noundef !15
  %9 = trunc i8 %8 to i1
  br i1 %9, label %14, label %10

10:                                               ; preds = %2
  %11 = load i8, ptr @H5_libterm_g, align 1, !tbaa !12, !range !14, !noundef !15
  %12 = trunc i8 %11 to i1
  %13 = xor i1 %12, true
  br label %14

14:                                               ; preds = %10, %2
  %15 = phi i1 [ true, %2 ], [ %13, %10 ]
  %16 = xor i1 %15, true
  %17 = xor i1 %16, true
  %18 = zext i1 %17 to i32
  %19 = sext i32 %18 to i64
  %20 = call i64 @llvm.expect.i64(i64 %19, i64 1)
  %21 = icmp ne i64 %20, 0
  br i1 %21, label %22, label %140

22:                                               ; preds = %14
  %23 = load ptr, ptr %4, align 8, !tbaa !87
  %24 = getelementptr inbounds nuw %struct.H5D_dset_io_info_t, ptr %23, i32 0, i32 9
  %25 = load ptr, ptr %24, align 8, !tbaa !23
  store ptr %25, ptr %5, align 8, !tbaa !98
  %26 = load ptr, ptr %5, align 8, !tbaa !98
  %27 = getelementptr inbounds nuw %struct.H5D_chunk_map_t, ptr %26, i32 0, i32 9
  %28 = load i8, ptr %27, align 8, !tbaa !126, !range !14, !noundef !15
  %29 = trunc i8 %28 to i1
  br i1 %29, label %30, label %35

30:                                               ; preds = %22
  %31 = load ptr, ptr %5, align 8, !tbaa !98
  %32 = getelementptr inbounds nuw %struct.H5D_chunk_map_t, ptr %31, i32 0, i32 7
  %33 = load ptr, ptr %32, align 8, !tbaa !108
  %34 = call i32 @H5S_select_all(ptr noundef %33, i1 noundef zeroext true)
  br label %101

35:                                               ; preds = %22
  %36 = load ptr, ptr %5, align 8, !tbaa !98
  %37 = getelementptr inbounds nuw %struct.H5D_chunk_map_t, ptr %36, i32 0, i32 6
  %38 = load ptr, ptr %37, align 8, !tbaa !107
  %39 = icmp ne ptr %38, null
  br i1 %39, label %40, label %66

40:                                               ; preds = %35
  %41 = load ptr, ptr %5, align 8, !tbaa !98
  %42 = getelementptr inbounds nuw %struct.H5D_chunk_map_t, ptr %41, i32 0, i32 6
  %43 = load ptr, ptr %42, align 8, !tbaa !107
  %44 = call i32 @H5SL_free(ptr noundef %43, ptr noundef @H5D__free_piece_info, ptr noundef null)
  %45 = icmp slt i32 %44, 0
  br i1 %45, label %46, label %65

46:                                               ; preds = %40
  br label %47

47:                                               ; preds = %46
  br label %48

48:                                               ; preds = %47
  br label %49

49:                                               ; preds = %48
  %50 = load i64, ptr @H5E_DATASET_g, align 8, !tbaa !24
  %51 = load i64, ptr @H5E_CANTNEXT_g, align 8, !tbaa !24
  %52 = call i32 (ptr, ptr, i32, i64, i64, ptr, ...) @H5E_printf_stack(ptr noundef @.str.1, ptr noundef @__func__.H5D__chunk_io_term, i32 noundef 3458, i64 noundef %50, i64 noundef %51, ptr noundef @.str.156)
  br label %53

53:                                               ; preds = %49
  br label %54

54:                                               ; preds = %53
  store i8 1, ptr %7, align 1, !tbaa !12
  %55 = load i8, ptr %7, align 1, !tbaa !12, !range !14, !noundef !15
  %56 = trunc i8 %55 to i1
  %57 = zext i1 %56 to i8
  store i8 %57, ptr %7, align 1, !tbaa !12
  br label %58

58:                                               ; preds = %54
  br label %59

59:                                               ; preds = %58
  br label %60

60:                                               ; preds = %59
  store i32 -1, ptr %6, align 4, !tbaa !10
  br label %139

61:                                               ; No predecessors!
  br label %62

62:                                               ; preds = %61
  br label %63

63:                                               ; preds = %62
  br label %64

64:                                               ; preds = %63
  br label %65

65:                                               ; preds = %64, %40
  br label %100

66:                                               ; preds = %35
  %67 = load ptr, ptr %5, align 8, !tbaa !98
  %68 = getelementptr inbounds nuw %struct.H5D_chunk_map_t, ptr %67, i32 0, i32 11
  %69 = load ptr, ptr %68, align 8, !tbaa !105
  %70 = icmp ne ptr %69, null
  br i1 %70, label %71, label %99

71:                                               ; preds = %66
  %72 = load ptr, ptr %5, align 8, !tbaa !98
  %73 = getelementptr inbounds nuw %struct.H5D_chunk_map_t, ptr %72, i32 0, i32 11
  %74 = load ptr, ptr %73, align 8, !tbaa !105
  %75 = call i32 @H5D__free_piece_info(ptr noundef %74, ptr noundef null, ptr noundef null)
  %76 = icmp slt i32 %75, 0
  br i1 %76, label %77, label %96

77:                                               ; preds = %71
  br label %78

78:                                               ; preds = %77
  br label %79

79:                                               ; preds = %78
  br label %80

80:                                               ; preds = %79
  %81 = load i64, ptr @H5E_DATASET_g, align 8, !tbaa !24
  %82 = load i64, ptr @H5E_CANTFREE_g, align 8, !tbaa !24
  %83 = call i32 (ptr, ptr, i32, i64, i64, ptr, ...) @H5E_printf_stack(ptr noundef @.str.1, ptr noundef @__func__.H5D__chunk_io_term, i32 noundef 3462, i64 noundef %81, i64 noundef %82, ptr noundef @.str.157)
  br label %84

84:                                               ; preds = %80
  br label %85

85:                                               ; preds = %84
  store i8 1, ptr %7, align 1, !tbaa !12
  %86 = load i8, ptr %7, align 1, !tbaa !12, !range !14, !noundef !15
  %87 = trunc i8 %86 to i1
  %88 = zext i1 %87 to i8
  store i8 %88, ptr %7, align 1, !tbaa !12
  br label %89

89:                                               ; preds = %85
  br label %90

90:                                               ; preds = %89
  br label %91

91:                                               ; preds = %90
  store i32 -1, ptr %6, align 4, !tbaa !10
  br label %139

92:                                               ; No predecessors!
  br label %93

93:                                               ; preds = %92
  br label %94

94:                                               ; preds = %93
  br label %95

95:                                               ; preds = %94
  br label %96

96:                                               ; preds = %95, %71
  %97 = load ptr, ptr %5, align 8, !tbaa !98
  %98 = getelementptr inbounds nuw %struct.H5D_chunk_map_t, ptr %97, i32 0, i32 11
  store ptr null, ptr %98, align 8, !tbaa !105
  br label %99

99:                                               ; preds = %96, %66
  br label %100

100:                                              ; preds = %99, %65
  br label %101

101:                                              ; preds = %100, %30
  %102 = load ptr, ptr %5, align 8, !tbaa !98
  %103 = getelementptr inbounds nuw %struct.H5D_chunk_map_t, ptr %102, i32 0, i32 1
  %104 = load ptr, ptr %103, align 8, !tbaa !106
  %105 = icmp ne ptr %104, null
  br i1 %105, label %106, label %132

106:                                              ; preds = %101
  %107 = load ptr, ptr %5, align 8, !tbaa !98
  %108 = getelementptr inbounds nuw %struct.H5D_chunk_map_t, ptr %107, i32 0, i32 1
  %109 = load ptr, ptr %108, align 8, !tbaa !106
  %110 = call i32 @H5S_close(ptr noundef %109)
  %111 = icmp slt i32 %110, 0
  br i1 %111, label %112, label %131

112:                                              ; preds = %106
  br label %113

113:                                              ; preds = %112
  br label %114

114:                                              ; preds = %113
  br label %115

115:                                              ; preds = %114
  %116 = load i64, ptr @H5E_DATASPACE_g, align 8, !tbaa !24
  %117 = load i64, ptr @H5E_CANTRELEASE_g, align 8, !tbaa !24
  %118 = call i32 (ptr, ptr, i32, i64, i64, ptr, ...) @H5E_printf_stack(ptr noundef @.str.1, ptr noundef @__func__.H5D__chunk_io_term, i32 noundef 3471, i64 noundef %116, i64 noundef %117, ptr noundef @.str.120)
  br label %119

119:                                              ; preds = %115
  br label %120

120:                                              ; preds = %119
  store i8 1, ptr %7, align 1, !tbaa !12
  %121 = load i8, ptr %7, align 1, !tbaa !12, !range !14, !noundef !15
  %122 = trunc i8 %121 to i1
  %123 = zext i1 %122 to i8
  store i8 %123, ptr %7, align 1, !tbaa !12
  br label %124

124:                                              ; preds = %120
  br label %125

125:                                              ; preds = %124
  br label %126

126:                                              ; preds = %125
  store i32 -1, ptr %6, align 4, !tbaa !10
  br label %139

127:                                              ; No predecessors!
  br label %128

128:                                              ; preds = %127
  br label %129

129:                                              ; preds = %128
  br label %130

130:                                              ; preds = %129
  br label %131

131:                                              ; preds = %130, %106
  br label %132

132:                                              ; preds = %131, %101
  %133 = load ptr, ptr %4, align 8, !tbaa !87
  %134 = getelementptr inbounds nuw %struct.H5D_dset_io_info_t, ptr %133, i32 0, i32 9
  %135 = load ptr, ptr %134, align 8, !tbaa !23
  %136 = call ptr @H5FL_reg_free(ptr noundef @H5_H5D_chunk_map_t_reg_free_list, ptr noundef %135)
  %137 = load ptr, ptr %4, align 8, !tbaa !87
  %138 = getelementptr inbounds nuw %struct.H5D_dset_io_info_t, ptr %137, i32 0, i32 9
  store ptr %136, ptr %138, align 8, !tbaa !23
  br label %139

139:                                              ; preds = %132, %126, %91, %60
  br label %140

140:                                              ; preds = %139, %14
  %141 = load i32, ptr %6, align 4, !tbaa !10
  call void @llvm.lifetime.end.p0(i64 1, ptr %7) #10
  call void @llvm.lifetime.end.p0(i64 4, ptr %6) #10
  call void @llvm.lifetime.end.p0(i64 8, ptr %5) #10
  ret i32 %141
}