; Function Attrs: nounwind uwtable
define internal range(i32 -1, 1) i32 @H5D__chunk_io_term(ptr readnone captures(none) %0, ptr noundef captures(none) %1) #0 {
  %3 = load i8, ptr @H5D_init_g, align 1, !tbaa !3, !range !7, !noundef !8
  %4 = trunc nuw i8 %3 to i1
  %5 = load i8, ptr @H5_libterm_g, align 1, !range !7
  %6 = trunc nuw i8 %5 to i1
  %7 = xor i1 %6, true
  %8 = select i1 %4, i1 true, i1 %7
  br i1 %8, label %9, label %63, !prof !9

9:                                                ; preds = %2
  %10 = getelementptr inbounds nuw i8, ptr %1, i64 192
  %11 = load ptr, ptr %10, align 8, !tbaa !20
  %12 = getelementptr inbounds nuw i8, ptr %11, i64 3216
  %13 = load i8, ptr %12, align 8, !tbaa !105, !range !7, !noundef !8
  %14 = trunc nuw i8 %13 to i1
  br i1 %14, label %15, label %19

15:                                               ; preds = %9
  %16 = getelementptr inbounds nuw i8, ptr %11, i64 3200
  %17 = load ptr, ptr %16, align 8, !tbaa !107
  %18 = tail call i32 @H5S_select_all(ptr noundef %17, i1 noundef zeroext true) #15
  br label %50

19:                                               ; preds = %9
  %20 = getelementptr inbounds nuw i8, ptr %11, i64 3192
  %21 = load ptr, ptr %20, align 8, !tbaa !132
  %.not = icmp eq ptr %21, null
  br i1 %.not, label %29, label %22

22:                                               ; preds = %19
  %23 = tail call i32 @H5SL_free(ptr noundef nonnull %21, ptr noundef nonnull @H5D__free_piece_info, ptr noundef null) #15
  %24 = icmp slt i32 %23, 0
  br i1 %24, label %25, label %50

25:                                               ; preds = %22
  %26 = load i64, ptr @H5E_DATASET_g, align 8, !tbaa !21
  %27 = load i64, ptr @H5E_CANTNEXT_g, align 8, !tbaa !21
  %28 = tail call i32 (ptr, ptr, i32, i64, i64, ptr, ...) @H5E_printf_stack(ptr noundef nonnull @.str.1, ptr noundef nonnull @__func__.H5D__chunk_io_term, i32 noundef 3458, i64 noundef %26, i64 noundef %27, ptr noundef nonnull @.str.156) #15
  br label %63

29:                                               ; preds = %19
  %30 = getelementptr inbounds nuw i8, ptr %11, i64 3232
  %31 = load ptr, ptr %30, align 8, !tbaa !94
  %.not18 = icmp eq ptr %31, null
  br i1 %.not18, label %50, label %32

32:                                               ; preds = %29
  %33 = getelementptr inbounds nuw i8, ptr %31, i64 296
  %34 = load i32, ptr %33, align 8, !tbaa !116
  %.not.i = icmp eq i32 %34, 0
  %35 = getelementptr inbounds nuw i8, ptr %31, i64 288
  %36 = load ptr, ptr %35, align 8, !tbaa !115
  br i1 %.not.i, label %37, label %39

37:                                               ; preds = %32
  %38 = tail call i32 @H5S_close(ptr noundef %36) #15
  br label %41

39:                                               ; preds = %32
  %40 = tail call i32 @H5S_select_all(ptr noundef %36, i1 noundef zeroext true) #15
  br label %41

41:                                               ; preds = %39, %37
  %42 = getelementptr inbounds nuw i8, ptr %31, i64 312
  %43 = load i32, ptr %42, align 8, !tbaa !118
  %.not8.i = icmp eq i32 %43, 0
  br i1 %.not8.i, label %44, label %H5D__free_piece_info.exit

44:                                               ; preds = %41
  %45 = getelementptr inbounds nuw i8, ptr %31, i64 304
  %46 = load ptr, ptr %45, align 8, !tbaa !117
  %.not9.i = icmp eq ptr %46, null
  br i1 %.not9.i, label %H5D__free_piece_info.exit, label %47

47:                                               ; preds = %44
  %48 = tail call i32 @H5S_close(ptr noundef nonnull %46) #15
  br label %H5D__free_piece_info.exit

H5D__free_piece_info.exit:                        ; preds = %41, %44, %47
  %49 = tail call ptr @H5FL_reg_free(ptr noundef nonnull @H5_H5D_piece_info_t_reg_free_list, ptr noundef nonnull %31) #15
  store ptr null, ptr %30, align 8, !tbaa !94
  br label %50

50:                                               ; preds = %22, %H5D__free_piece_info.exit, %29, %15
  %51 = getelementptr inbounds nuw i8, ptr %11, i64 8
  %52 = load ptr, ptr %51, align 8, !tbaa !95
  %.not19 = icmp eq ptr %52, null
  br i1 %.not19, label %60, label %53

53:                                               ; preds = %50
  %54 = tail call i32 @H5S_close(ptr noundef nonnull %52) #15
  %55 = icmp slt i32 %54, 0
  br i1 %55, label %56, label %60

56:                                               ; preds = %53
  %57 = load i64, ptr @H5E_DATASPACE_g, align 8, !tbaa !21
  %58 = load i64, ptr @H5E_CANTRELEASE_g, align 8, !tbaa !21
  %59 = tail call i32 (ptr, ptr, i32, i64, i64, ptr, ...) @H5E_printf_stack(ptr noundef nonnull @.str.1, ptr noundef nonnull @__func__.H5D__chunk_io_term, i32 noundef 3471, i64 noundef %57, i64 noundef %58, ptr noundef nonnull @.str.120) #15
  br label %63

60:                                               ; preds = %53, %50
  %61 = load ptr, ptr %10, align 8, !tbaa !20
  %62 = tail call ptr @H5FL_reg_free(ptr noundef nonnull @H5_H5D_chunk_map_t_reg_free_list, ptr noundef %61) #15
  store ptr %62, ptr %10, align 8, !tbaa !20
  br label %63

63:                                               ; preds = %25, %56, %60, %2
  %.0 = phi i32 [ -1, %56 ], [ 0, %60 ], [ -1, %25 ], [ 0, %2 ]
  ret i32 %.0
}